; Function Attrs: nounwind uwtable
define internal noundef i32 @lj_cf_ffi_clib___gc(ptr noundef readonly captures(none) %0) #0 {
  %2 = getelementptr inbounds nuw i8, ptr %0, i64 32
  %3 = load ptr, ptr %2, align 8, !tbaa !44
  %4 = getelementptr inbounds nuw i8, ptr %0, i64 40
  %5 = load ptr, ptr %4, align 8, !tbaa !4
  %6 = icmp ult ptr %3, %5
  br i1 %6, label %7, label %18

7:                                                ; preds = %1
  %8 = load i64, ptr %3, align 8, !tbaa !23
  %.mask = and i64 %8, -140737488355328
  %9 = icmp eq i64 %.mask, -1829587348619264
  br i1 %9, label %10, label %18

10:                                               ; preds = %7
  %11 = and i64 %8, 140737488355327
  %12 = inttoptr i64 %11 to ptr
  %13 = getelementptr inbounds nuw i8, ptr %12, i64 10
  %14 = load i8, ptr %13, align 2, !tbaa !23
  %15 = icmp eq i8 %14, 2
  br i1 %15, label %16, label %18

16:                                               ; preds = %10
  %17 = getelementptr inbounds nuw i8, ptr %12, i64 48
  tail call void @lj_clib_unload(ptr noundef nonnull %17) #9
  br label %18

18:                                               ; preds = %16, %10, %7, %1
  ret i32 0
}